target datalayout = "e-m:e-p270:32:32-p271:32:32-p272:64:64-i64:64-i128:128-f80:128-n8:16:32:64-S128"
target triple = "x86_64-unknown-linux-gnu"

%"class.boost::detail::shared_count" = type { ptr }
%"class.QuantLib::BrownianGeneratorFactory" = type { ptr }
%"class.boost::shared_ptr.38" = type { ptr, %"class.boost::detail::shared_count" }
%"class.QuantLib::Burley2020SobolBrownianGeneratorFactory" = type { %"class.QuantLib::BrownianGeneratorFactory", i32, i64, i32, i64 }
%"class.boost::detail::sp_counted_base" = type { ptr, i32, i32 }
%"class.boost::detail::sp_counted_impl_p.50" = type { %"class.boost::detail::sp_counted_base", ptr }

; Function Attrs: mustprogress nounwind uwtable
define linkonce_odr void @_ZN5boost6detail15sp_counted_baseC2Ev(ptr noundef nonnull align 8 dereferenceable(16) %this) unnamed_addr #4 comdat align 2 {
entry:
  %this.addr = alloca ptr, align 8
  store ptr %this, ptr %this.addr, align 8, !tbaa !3
  %this1 = load ptr, ptr %this.addr, align 8
  store ptr getelementptr inbounds inrange(-16, 56) ({ [9 x ptr] }, ptr @_ZTVN5boost6detail15sp_counted_baseE, i32 0, i32 0, i32 2), ptr %this1, align 8, !tbaa !11
  %use_count_ = getelementptr inbounds nuw %"class.boost::detail::sp_counted_base", ptr %this1, i32 0, i32 1
  store i32 1, ptr %use_count_, align 8, !tbaa !181
  %weak_count_ = getelementptr inbounds nuw %"class.boost::detail::sp_counted_base", ptr %this1, i32 0, i32 2
  store i32 1, ptr %weak_count_, align 4, !tbaa !182
  ret void
}

; Function Attrs: inlinehint mustprogress nounwind uwtable
define linkonce_odr void @_ZN5boost14checked_deleteIN8QuantLib32Burley2020SobolBrownianGeneratorEEEvPT_(ptr noundef %x) #1 comdat {
entry:
  %x.addr = alloca ptr, align 8
  store ptr %x, ptr %x.addr, align 8, !tbaa !3
  %0 = load ptr, ptr %x.addr, align 8, !tbaa !3
  %isnull = icmp eq ptr %0, null
  br i1 %isnull, label %delete.end, label %delete.notnull

delete.notnull:                                   ; preds = %entry
  %vtable = load ptr, ptr %0, align 8, !tbaa !11
  %vfn = getelementptr inbounds ptr, ptr %vtable, i64 1
  %1 = load ptr, ptr %vfn, align 8
  call void %1(ptr noundef nonnull align 8 dereferenceable(472) %0) #16
  br label %delete.end

delete.end:                                       ; preds = %delete.notnull, %entry
  ret void
}

; Function Attrs: mustprogress nounwind uwtable
define linkonce_odr void @_ZN5boost6detail17sp_counted_impl_pIN8QuantLib32Burley2020SobolBrownianGeneratorEEC2EPS3_(ptr noundef nonnull align 8 dereferenceable(24) %this, ptr noundef %px) unnamed_addr #4 comdat align 2 {
entry:
  %this.addr = alloca ptr, align 8
  %px.addr = alloca ptr, align 8
  store ptr %this, ptr %this.addr, align 8, !tbaa !3
  store ptr %px, ptr %px.addr, align 8, !tbaa !3
  %this1 = load ptr, ptr %this.addr, align 8
  call void @_ZN5boost6detail15sp_counted_baseC2Ev(ptr noundef nonnull align 8 dereferenceable(16) %this1)
  store ptr getelementptr inbounds inrange(-16, 56) ({ [9 x ptr] }, ptr @_ZTVN5boost6detail17sp_counted_impl_pIN8QuantLib32Burley2020SobolBrownianGeneratorEEE, i32 0, i32 0, i32 2), ptr %this1, align 8, !tbaa !11
  %px_ = getelementptr inbounds nuw %"class.boost::detail::sp_counted_impl_p.50", ptr %this1, i32 0, i32 1
  %0 = load ptr, ptr %px.addr, align 8, !tbaa !3
  store ptr %0, ptr %px_, align 8, !tbaa !186
  ret void
}

; Function Attrs: inlinehint mustprogress nounwind uwtable
define linkonce_odr void @_ZN5boost6detail26sp_enable_shared_from_thisEz(...) #1 comdat {
entry:
  ret void
}

; Function Attrs: mustprogress nounwind uwtable
define linkonce_odr void @_ZN5boost6detail12shared_count4swapERS1_(ptr noundef nonnull align 8 dereferenceable(8) %this, ptr noundef nonnull align 8 dereferenceable(8) %r) #4 comdat align 2 {
entry:
  %this.addr = alloca ptr, align 8
  %r.addr = alloca ptr, align 8
  %tmp = alloca ptr, align 8
  store ptr %this, ptr %this.addr, align 8, !tbaa !3
  store ptr %r, ptr %r.addr, align 8, !tbaa !3
  %this1 = load ptr, ptr %this.addr, align 8
  call void @llvm.lifetime.start.p0(i64 8, ptr %tmp) #16
  %0 = load ptr, ptr %r.addr, align 8, !tbaa !3
  %pi_ = getelementptr inbounds nuw %"class.boost::detail::shared_count", ptr %0, i32 0, i32 0
  %1 = load ptr, ptr %pi_, align 8, !tbaa !107
  store ptr %1, ptr %tmp, align 8, !tbaa !3
  %pi_2 = getelementptr inbounds nuw %"class.boost::detail::shared_count", ptr %this1, i32 0, i32 0
  %2 = load ptr, ptr %pi_2, align 8, !tbaa !107
  %3 = load ptr, ptr %r.addr, align 8, !tbaa !3
  %pi_3 = getelementptr inbounds nuw %"class.boost::detail::shared_count", ptr %3, i32 0, i32 0
  store ptr %2, ptr %pi_3, align 8, !tbaa !107
  %4 = load ptr, ptr %tmp, align 8, !tbaa !3
  %pi_4 = getelementptr inbounds nuw %"class.boost::detail::shared_count", ptr %this1, i32 0, i32 0
  store ptr %4, ptr %pi_4, align 8, !tbaa !107
  call void @llvm.lifetime.end.p0(i64 8, ptr %tmp) #16
  ret void
}

; Function Attrs: mustprogress uwtable
define linkonce_odr void @_ZN5boost6detail12shared_countC2IN8QuantLib32Burley2020SobolBrownianGeneratorEEEPT_(ptr noundef nonnull align 8 dereferenceable(8) %this, ptr noundef %p) unnamed_addr #0 comdat align 2 personality ptr @__gxx_personality_v0 {
entry:
  %this.addr = alloca ptr, align 8
  %p.addr = alloca ptr, align 8
  %exn.slot = alloca ptr, align 8
  %ehselector.slot = alloca i32, align 4
  store ptr %this, ptr %this.addr, align 8, !tbaa !3
  store ptr %p, ptr %p.addr, align 8, !tbaa !3
  %this1 = load ptr, ptr %this.addr, align 8
  %pi_ = getelementptr inbounds nuw %"class.boost::detail::shared_count", ptr %this1, i32 0, i32 0
  store ptr null, ptr %pi_, align 8, !tbaa !107
  %call = invoke noalias noundef nonnull ptr @_Znwm(i64 noundef 24) #19
          to label %invoke.cont unwind label %lpad

invoke.cont:                                      ; preds = %entry
  %0 = load ptr, ptr %p.addr, align 8, !tbaa !3
  invoke void @_ZN5boost6detail17sp_counted_impl_pIN8QuantLib32Burley2020SobolBrownianGeneratorEEC2EPS3_(ptr noundef nonnull align 8 dereferenceable(24) %call, ptr noundef %0)
          to label %invoke.cont3 unwind label %lpad2

invoke.cont3:                                     ; preds = %invoke.cont
  %pi_4 = getelementptr inbounds nuw %"class.boost::detail::shared_count", ptr %this1, i32 0, i32 0
  store ptr %call, ptr %pi_4, align 8, !tbaa !107
  br label %try.cont

lpad:                                             ; preds = %entry
  %1 = landingpad { ptr, i32 }
          catch ptr null
  %2 = extractvalue { ptr, i32 } %1, 0
  store ptr %2, ptr %exn.slot, align 8
  %3 = extractvalue { ptr, i32 } %1, 1
  store i32 %3, ptr %ehselector.slot, align 4
  br label %catch

lpad2:                                            ; preds = %invoke.cont
  %4 = landingpad { ptr, i32 }
          catch ptr null
  %5 = extractvalue { ptr, i32 } %4, 0
  store ptr %5, ptr %exn.slot, align 8
  %6 = extractvalue { ptr, i32 } %4, 1
  store i32 %6, ptr %ehselector.slot, align 4
  call void @_ZdlPvm(ptr noundef %call, i64 noundef 24) #20
  br label %catch

catch:                                            ; preds = %lpad2, %lpad
  %exn = load ptr, ptr %exn.slot, align 8
  %7 = call ptr @__cxa_begin_catch(ptr %exn) #16
  %8 = load ptr, ptr %p.addr, align 8, !tbaa !3
  call void @_ZN5boost14checked_deleteIN8QuantLib32Burley2020SobolBrownianGeneratorEEEvPT_(ptr noundef %8) #16
  invoke void @__cxa_rethrow() #17
          to label %unreachable unwind label %lpad5

lpad5:                                            ; preds = %catch
  %9 = landingpad { ptr, i32 }
          cleanup
  %10 = extractvalue { ptr, i32 } %9, 0
  store ptr %10, ptr %exn.slot, align 8
  %11 = extractvalue { ptr, i32 } %9, 1
  store i32 %11, ptr %ehselector.slot, align 4
  invoke void @__cxa_end_catch()
          to label %invoke.cont6 unwind label %terminate.lpad

invoke.cont6:                                     ; preds = %lpad5
  br label %eh.resume

try.cont:                                         ; preds = %invoke.cont3
  ret void

eh.resume:                                        ; preds = %invoke.cont6
  %exn7 = load ptr, ptr %exn.slot, align 8
  %sel = load i32, ptr %ehselector.slot, align 4
  %lpad.val = insertvalue { ptr, i32 } poison, ptr %exn7, 0
  %lpad.val8 = insertvalue { ptr, i32 } %lpad.val, i32 %sel, 1
  resume { ptr, i32 } %lpad.val8

terminate.lpad:                                   ; preds = %lpad5
  %12 = landingpad { ptr, i32 }
          catch ptr null
  %13 = extractvalue { ptr, i32 } %12, 0
  call void @__clang_call_terminate(ptr %13) #18
  unreachable

unreachable:                                      ; preds = %catch
  unreachable
}

; Function Attrs: inlinehint mustprogress uwtable
define linkonce_odr void @_ZN5boost6detail20sp_pointer_constructIN8QuantLib17BrownianGeneratorENS2_32Burley2020SobolBrownianGeneratorEEEvPNS_10shared_ptrIT_EEPT0_RNS0_12shared_countE(ptr noundef %ppx, ptr noundef %p, ptr noundef nonnull align 8 dereferenceable(8) %pn) #5 comdat {
entry:
  %ppx.addr = alloca ptr, align 8
  %p.addr = alloca ptr, align 8
  %pn.addr = alloca ptr, align 8
  %ref.tmp = alloca %"class.boost::detail::shared_count", align 8
  store ptr %ppx, ptr %ppx.addr, align 8, !tbaa !3
  store ptr %p, ptr %p.addr, align 8, !tbaa !3
  store ptr %pn, ptr %pn.addr, align 8, !tbaa !3
  call void @llvm.lifetime.start.p0(i64 8, ptr %ref.tmp) #16
  %0 = load ptr, ptr %p.addr, align 8, !tbaa !3
  call void @_ZN5boost6detail12shared_countC2IN8QuantLib32Burley2020SobolBrownianGeneratorEEEPT_(ptr noundef nonnull align 8 dereferenceable(8) %ref.tmp, ptr noundef %0)
  %1 = load ptr, ptr %pn.addr, align 8, !tbaa !3
  call void @_ZN5boost6detail12shared_count4swapERS1_(ptr noundef nonnull align 8 dereferenceable(8) %ref.tmp, ptr noundef nonnull align 8 dereferenceable(8) %1) #16
  call void @_ZN5boost6detail12shared_countD2Ev(ptr noundef nonnull align 8 dereferenceable(8) %ref.tmp) #16
  call void @llvm.lifetime.end.p0(i64 8, ptr %ref.tmp) #16
  %2 = load ptr, ptr %ppx.addr, align 8, !tbaa !3
  %3 = load ptr, ptr %p.addr, align 8, !tbaa !3
  %4 = load ptr, ptr %p.addr, align 8, !tbaa !3
  call void (...) @_ZN5boost6detail26sp_enable_shared_from_thisEz(ptr noundef %2, ptr noundef %3, ptr noundef %4)
  ret void
}

; Function Attrs: mustprogress nounwind uwtable
define linkonce_odr void @_ZN5boost6detail12shared_countC2Ev(ptr noundef nonnull align 8 dereferenceable(8) %this) unnamed_addr #4 comdat align 2 {
entry:
  %this.addr = alloca ptr, align 8
  store ptr %this, ptr %this.addr, align 8, !tbaa !3
  %this1 = load ptr, ptr %this.addr, align 8
  %pi_ = getelementptr inbounds nuw %"class.boost::detail::shared_count", ptr %this1, i32 0, i32 0
  store ptr null, ptr %pi_, align 8, !tbaa !107
  ret void
}

; Function Attrs: mustprogress uwtable
define linkonce_odr void @_ZN5boost10shared_ptrIN8QuantLib17BrownianGeneratorEEC2INS1_32Burley2020SobolBrownianGeneratorEEEPT_(ptr noundef nonnull align 8 dereferenceable(16) %this, ptr noundef %p) unnamed_addr #0 comdat align 2 personality ptr @__gxx_personality_v0 {
entry:
  %this.addr = alloca ptr, align 8
  %p.addr = alloca ptr, align 8
  %exn.slot = alloca ptr, align 8
  %ehselector.slot = alloca i32, align 4
  store ptr %this, ptr %this.addr, align 8, !tbaa !3
  store ptr %p, ptr %p.addr, align 8, !tbaa !3
  %this1 = load ptr, ptr %this.addr, align 8
  %px = getelementptr inbounds nuw %"class.boost::shared_ptr.38", ptr %this1, i32 0, i32 0
  %0 = load ptr, ptr %p.addr, align 8, !tbaa !3
  store ptr %0, ptr %px, align 8, !tbaa !93
  %pn = getelementptr inbounds nuw %"class.boost::shared_ptr.38", ptr %this1, i32 0, i32 1
  call void @_ZN5boost6detail12shared_countC2Ev(ptr noundef nonnull align 8 dereferenceable(8) %pn) #16
  %1 = load ptr, ptr %p.addr, align 8, !tbaa !3
  %pn2 = getelementptr inbounds nuw %"class.boost::shared_ptr.38", ptr %this1, i32 0, i32 1
  invoke void @_ZN5boost6detail20sp_pointer_constructIN8QuantLib17BrownianGeneratorENS2_32Burley2020SobolBrownianGeneratorEEEvPNS_10shared_ptrIT_EEPT0_RNS0_12shared_countE(ptr noundef %this1, ptr noundef %1, ptr noundef nonnull align 8 dereferenceable(8) %pn2)
          to label %invoke.cont unwind label %lpad

invoke.cont:                                      ; preds = %entry
  ret void

lpad:                                             ; preds = %entry
  %2 = landingpad { ptr, i32 }
          cleanup
  %3 = extractvalue { ptr, i32 } %2, 0
  store ptr %3, ptr %exn.slot, align 8
  %4 = extractvalue { ptr, i32 } %2, 1
  store i32 %4, ptr %ehselector.slot, align 4
  call void @_ZN5boost6detail12shared_countD2Ev(ptr noundef nonnull align 8 dereferenceable(8) %pn) #16
  br label %eh.resume

eh.resume:                                        ; preds = %lpad
  %exn = load ptr, ptr %exn.slot, align 8
  %sel = load i32, ptr %ehselector.slot, align 4
  %lpad.val = insertvalue { ptr, i32 } poison, ptr %exn, 0
  %lpad.val3 = insertvalue { ptr, i32 } %lpad.val, i32 %sel, 1
  resume { ptr, i32 } %lpad.val3
}

; Function Attrs: mustprogress uwtable
define void @_ZNK8QuantLib39Burley2020SobolBrownianGeneratorFactory6createEmm(ptr dead_on_unwind noalias writable sret(%"class.boost::shared_ptr.38") align 8 %agg.result, ptr noundef nonnull align 8 dereferenceable(40) %this, i64 noundef %factors, i64 noundef %steps) unnamed_addr #0 align 2 personality ptr @__gxx_personality_v0 {
entry:
  %result.ptr = alloca ptr, align 8
  %this.addr = alloca ptr, align 8
  %factors.addr = alloca i64, align 8
  %steps.addr = alloca i64, align 8
  %exn.slot = alloca ptr, align 8
  %ehselector.slot = alloca i32, align 4
  store ptr %agg.result, ptr %result.ptr, align 8
  store ptr %this, ptr %this.addr, align 8, !tbaa !3
  store i64 %factors, ptr %factors.addr, align 8, !tbaa !7
  store i64 %steps, ptr %steps.addr, align 8, !tbaa !7
  %this1 = load ptr, ptr %this.addr, align 8
  %call = call noalias noundef nonnull ptr @_Znwm(i64 noundef 472) #19
  %0 = load i64, ptr %factors.addr, align 8, !tbaa !7
  %1 = load i64, ptr %steps.addr, align 8, !tbaa !7
  %ordering_ = getelementptr inbounds nuw %"class.QuantLib::Burley2020SobolBrownianGeneratorFactory", ptr %this1, i32 0, i32 1
  %2 = load i32, ptr %ordering_, align 8, !tbaa !102
  %seed_ = getelementptr inbounds nuw %"class.QuantLib::Burley2020SobolBrownianGeneratorFactory", ptr %this1, i32 0, i32 2
  %3 = load i64, ptr %seed_, align 8, !tbaa !104
  %integers_ = getelementptr inbounds nuw %"class.QuantLib::Burley2020SobolBrownianGeneratorFactory", ptr %this1, i32 0, i32 3
  %4 = load i32, ptr %integers_, align 8, !tbaa !105
  %scrambleSeed_ = getelementptr inbounds nuw %"class.QuantLib::Burley2020SobolBrownianGeneratorFactory", ptr %this1, i32 0, i32 4
  %5 = load i64, ptr %scrambleSeed_, align 8, !tbaa !106
  invoke void @_ZN8QuantLib32Burley2020SobolBrownianGeneratorC1EmmNS_26SobolBrownianGeneratorBase8OrderingEmNS_8SobolRsg17DirectionIntegersEm(ptr noundef nonnull align 8 dereferenceable(472) %call, i64 noundef %0, i64 noundef %1, i32 noundef %2, i64 noundef %3, i32 noundef %4, i64 noundef %5)
          to label %invoke.cont unwind label %lpad

invoke.cont:                                      ; preds = %entry
  call void @_ZN5boost10shared_ptrIN8QuantLib17BrownianGeneratorEEC2INS1_32Burley2020SobolBrownianGeneratorEEEPT_(ptr noundef nonnull align 8 dereferenceable(16) %agg.result, ptr noundef %call)
  ret void

lpad:                                             ; preds = %entry
  %6 = landingpad { ptr, i32 }
          cleanup
  %7 = extractvalue { ptr, i32 } %6, 0
  store ptr %7, ptr %exn.slot, align 8
  %8 = extractvalue { ptr, i32 } %6, 1
  store i32 %8, ptr %ehselector.slot, align 4
  call void @_ZdlPvm(ptr noundef %call, i64 noundef 472) #20
  br label %eh.resume

eh.resume:                                        ; preds = %lpad
  %exn = load ptr, ptr %exn.slot, align 8
  %sel = load i32, ptr %ehselector.slot, align 4
  %lpad.val = insertvalue { ptr, i32 } poison, ptr %exn, 0
  %lpad.val2 = insertvalue { ptr, i32 } %lpad.val, i32 %sel, 1
  resume { ptr, i32 } %lpad.val2
}